; Function Attrs: inlinehint mustprogress uwtable
define internal fastcc void @_ZN6icu_77L11addCategoryEPNS_10UnicodeSetEiR10UErrorCode(ptr noundef %0, i32 noundef range(i32 1, 33554433) %1, ptr noundef nonnull align 4 dereferenceable(4) %2) unnamed_addr #2 personality ptr @__gxx_personality_v0 {
  %4 = alloca %"class.icu_77::UnicodeSet", align 8
  call void @llvm.lifetime.start.p0(i64 200, ptr nonnull %4) #15
  call void @_ZN6icu_7710UnicodeSetC1Ev(ptr noundef nonnull align 8 dereferenceable(200) %4)
  %5 = invoke noundef nonnull align 8 dereferenceable(200) ptr @_ZN6icu_7710UnicodeSet21applyIntPropertyValueE9UPropertyiR10UErrorCode(ptr noundef nonnull align 8 dereferenceable(200) %4, i32 noundef 8192, i32 noundef %1, ptr noundef nonnull align 4 dereferenceable(4) %2)
          to label %6 unwind label %9

6:                                                ; preds = %3
  %7 = invoke noundef nonnull align 8 dereferenceable(200) ptr @_ZN6icu_7710UnicodeSet6addAllERKS0_(ptr noundef nonnull align 8 dereferenceable(200) %0, ptr noundef nonnull align 8 dereferenceable(200) %5)
          to label %8 unwind label %9

8:                                                ; preds = %6
  call void @_ZN6icu_7710UnicodeSetD1Ev(ptr noundef nonnull align 8 dereferenceable(200) %4) #15
  call void @llvm.lifetime.end.p0(i64 200, ptr nonnull %4) #15
  ret void

9:                                                ; preds = %6, %3
  %10 = landingpad { ptr, i32 }
          cleanup
  call void @_ZN6icu_7710UnicodeSetD1Ev(ptr noundef nonnull align 8 dereferenceable(200) %4) #15
  call void @llvm.lifetime.end.p0(i64 200, ptr nonnull %4) #15
  resume { ptr, i32 } %10
}